Certificate:
    Data:
        Version: 3 (0x2)
        Serial Number: 1 (0x1)
    Signature Algorithm: sha256WithRSAEncryption
        Issuer: C=CN, ST=beijing, L=beijing, O=joyoudata, OU=it, CN=docker-registry.service.cf.internal/emailAddress=jackyuan88726@126.com
        Validity
            Not Before: Jan 13 06:37:09 2016 GMT
            Not After : Jan 12 06:37:09 2017 GMT
        Subject: C=CN, ST=beijing, O=joyoudata, OU=it, CN=docker-registry.service.cf.internal/emailAddress=jackyuan88726@126.com
        Subject Public Key Info:
            Public Key Algorithm: rsaEncryption
                Public-Key: (4096 bit)
                Modulus:
                    00:c3:de:98:45:12:ac:6f:94:2e:40:9a:dc:18:2a:
                    a9:11:88:26:4d:52:9e:af:32:7f:42:93:2a:6c:1f:
                    a1:3b:53:38:69:dc:28:95:e3:a8:17:41:ce:ff:ce:
                    f5:71:b1:26:7d:f2:cf:2b:1b:3c:ed:3c:da:23:73:
                    52:24:5e:bf:9f:1f:3d:7f:6b:9b:ed:6d:33:61:ff:
                    14:3f:5f:14:b0:4b:2e:69:66:0e:3d:cf:cb:76:ba:
                    0d:87:16:f6:b7:9e:a5:6b:70:f8:56:c7:9b:a6:0d:
                    c0:fe:44:12:71:69:14:65:84:59:22:48:4c:0b:a3:
                    f6:17:79:13:8d:80:a4:12:16:1a:db:b6:c6:45:97:
                    68:8a:41:34:17:98:b0:4d:78:74:b9:2f:ac:5e:38:
                    84:8e:5d:28:99:54:75:cb:82:b0:ee:ad:26:87:07:
                    89:1a:42:78:02:7d:70:a3:d0:a2:ea:99:4a:cb:fd:
                    28:42:d1:0c:2e:48:ba:87:20:dd:61:a7:13:ac:22:
                    72:ed:89:0f:e5:ba:36:db:c0:06:fa:7b:cc:d6:2b:
                    bd:27:da:55:57:0d:66:17:23:7c:68:12:55:11:a7:
                    e2:9d:b8:c3:dc:fa:a4:b4:07:46:9b:39:eb:55:07:
                    f5:4e:59:95:66:24:af:8f:b2:fb:23:12:84:e7:bb:
                    08:0a:5b:ff:2d:84:16:6f:a6:dc:c1:f5:e5:4e:c0:
                    e0:b6:a4:62:a1:0c:79:e7:63:7f:20:d4:8a:95:37:
                    39:bd:2b:90:ff:9b:00:26:94:4c:fa:ac:fb:06:c0:
                    2a:b8:08:4c:80:85:1e:2b:b7:9c:e9:b0:ba:47:33:
                    cd:c0:49:38:7e:23:ad:d2:ef:83:6d:a0:4e:c7:01:
                    81:44:81:39:94:a1:75:44:4f:dc:d4:c2:8d:8e:b7:
                    03:38:31:09:0f:8f:bd:15:99:46:0b:ea:8b:52:0c:
                    02:9a:3f:c9:ed:4a:4d:2c:86:1d:e1:0f:0b:9d:4a:
                    94:e7:42:e9:e8:37:90:45:7a:19:72:79:45:56:62:
                    08:d8:0b:a8:61:77:78:09:d9:d1:88:a6:e4:6d:72:
                    6a:e1:e9:45:be:83:8c:fc:8e:06:43:3f:e7:a6:1d:
                    db:f7:bc:bd:ce:31:07:d2:d3:11:57:6f:57:a1:60:
                    a3:4c:6b:a5:a7:1e:f7:6a:65:83:b7:96:0b:7e:89:
                    44:2c:5a:4c:0e:e2:6c:04:86:94:01:58:c6:71:e2:
                    f3:d1:db:ef:05:10:97:50:4a:6e:87:b8:74:34:6f:
                    23:cd:3d:70:76:c9:73:b7:e3:79:2f:4c:8c:f2:d1:
                    41:1c:65:9e:ba:f8:53:dd:e3:2a:78:17:f8:43:dd:
                    c8:92:2d
                Exponent: 65537 (0x10001)
        X509v3 extensions:
            X509v3 Basic Constraints: 
                CA:FALSE
            Netscape Comment: 
                OpenSSL Generated Certificate
            X509v3 Subject Key Identifier: 
                94:95:09:7A:E6:4B:B9:6A:CD:26:56:46:08:59:5A:DA:8A:0B:FF:90
            X509v3 Authority Key Identifier: 
                keyid:C8:F4:9D:B7:AF:05:B3:42:B8:18:5D:9E:98:B9:2A:22:23:AD:5E:B8

    Signature Algorithm: sha256WithRSAEncryption
         b0:b6:af:28:67:ea:96:ea:60:b1:1f:9e:77:80:6d:9f:51:fd:
         59:06:98:0b:a9:56:a4:dd:33:ae:41:cf:c9:74:0a:63:1e:a9:
         84:42:fd:a0:d5:9a:04:0f:0e:97:6c:a4:38:ea:13:91:00:d8:
         e0:f1:d9:a5:c5:80:f8:c5:cb:5e:f2:7b:c3:1b:da:8d:6b:a8:
         ec:73:86:e7:52:82:c0:23:f3:9f:96:ac:41:2d:e2:46:e9:57:
         18:97:36:09:cb:7d:19:82:bf:61:1c:06:05:f1:b9:f3:9b:a7:
         fc:2d:17:84:ac:73:51:eb:ce:c4:5c:a1:c0:80:45:4e:12:14:
         07:1d:00:6b:69:1b:77:50:f2:e9:68:06:85:65:c2:a0:25:b4:
         25:a4:53:2f:6a:f1:09:36:48:5c:3f:b7:e7:64:99:a7:c8:36:
         46:82:34:ff:38:dd:d8:d6:e2:f9:19:56:04:b7:aa:c0:1b:aa:
         ba:ce:b1:62:94:70:ec:46:7e:fa:9f:20:c1:c0:97:b7:38:30:
         59:ce:a4:23:81:50:2e:53:29:ba:22:85:2e:0b:bf:da:05:2c:
         3f:b9:20:d3:8f:92:62:f5:da:fd:0c:c6:1c:f9:57:f1:f8:80:
         e7:75:17:50:85:6d:9b:64:f4:4e:05:ad:db:29:13:b6:25:54:
         5d:e0:be:b6:79:84:55:21:4f:20:b5:d1:2e:c4:91:f7:dc:90:
         68:51:4c:43:20:90:63:3d:a1:f3:9b:2f:12:98:c1:32:0a:e2:
         ae:9a:12:61:2f:bc:f7:33:6a:d2:bd:06:76:9d:b7:ad:c2:2a:
         34:41:fc:b8:8f:ca:69:f3:07:5c:bc:3d:f7:e8:30:89:d3:ad:
         a9:be:75:5a:ae:f9:87:37:47:57:3d:a5:3e:15:35:44:b6:42:
         b4:ef:f8:11:93:82:db:cd:90:4f:5c:6b:83:90:81:b9:a9:51:
         9b:4c:d4:8c:ae:ba:c4:0e:21:c5:d8:a9:15:e1:c9:dc:02:d2:
         a9:82:7b:ff:6f:4b:ca:75:02:7f:b8:df:c7:b0:b9:c5:45:ea:
         99:2a:03:f4:df:1b:15:ae:4f:3c:33:8d:b8:01:26:34:32:79:
         d8:41:db:06:72:da:5f:68:d0:25:32:df:d9:76:31:eb:74:2f:
         7a:c0:73:4d:78:81:5a:53:94:56:f5:57:e0:48:4e:2d:9e:5c:
         5d:26:db:00:57:60:58:bc:10:e0:8d:a0:9b:c5:e5:61:93:5d:
         1a:6f:b8:82:f6:91:47:b8:15:a4:f2:6e:3d:14:90:34:9e:b3:
         1d:ff:26:22:71:fa:89:ac:3b:d8:85:60:f1:bf:7f:14:b3:7d:
         e1:6f:ae:6c:53:1b:32:f7
-----BEGIN CERTIFICATE-----
MIIGMjCCBBqgAwIBAgIBATANBgkqhkiG9w0BAQsFADCBpjELMAkGA1UEBhMCQ04x
EDAOBgNVBAgMB2JlaWppbmcxEDAOBgNVBAcMB2JlaWppbmcxEjAQBgNVBAoMCWpv
eW91ZGF0YTELMAkGA1UECwwCaXQxLDAqBgNVBAMMI2RvY2tlci1yZWdpc3RyeS5z
ZXJ2aWNlLmNmLmludGVybmFsMSQwIgYJKoZIhvcNAQkBFhVqYWNreXVhbjg4NzI2
QDEyNi5jb20wHhcNMTYwMTEzMDYzNzA5WhcNMTcwMTEyMDYzNzA5WjCBlDELMAkG
A1UEBhMCQ04xEDAOBgNVBAgMB2JlaWppbmcxEjAQBgNVBAoMCWpveW91ZGF0YTEL
MAkGA1UECwwCaXQxLDAqBgNVBAMMI2RvY2tlci1yZWdpc3RyeS5zZXJ2aWNlLmNm
LmludGVybmFsMSQwIgYJKoZIhvcNAQkBFhVqYWNreXVhbjg4NzI2QDEyNi5jb20w
ggIiMA0GCSqGSIb3DQEBAQUAA4ICDwAwggIKAoICAQDD3phFEqxvlC5AmtwYKqkR
iCZNUp6vMn9CkypsH6E7Uzhp3CiV46gXQc7/zvVxsSZ98s8rGzztPNojc1IkXr+f
Hz1/a5vtbTNh/xQ/XxSwSy5pZg49z8t2ug2HFva3nqVrcPhWx5umDcD+RBJxaRRl
hFkiSEwLo/YXeRONgKQSFhrbtsZFl2iKQTQXmLBNeHS5L6xeOISOXSiZVHXLgrDu
rSaHB4kaQngCfXCj0KLqmUrL/ShC0QwuSLqHIN1hpxOsInLtiQ/lujbbwAb6e8zW
K70n2lVXDWYXI3xoElURp+KduMPc+qS0B0abOetVB/VOWZVmJK+PsvsjEoTnuwgK
W/8thBZvptzB9eVOwOC2pGKhDHnnY38g1IqVNzm9K5D/mwAmlEz6rPsGwCq4CEyA
hR4rt5zpsLpHM83ASTh+I63S74NtoE7HAYFEgTmUoXVET9zUwo2OtwM4MQkPj70V
mUYL6otSDAKaP8ntSk0shh3hDwudSpTnQunoN5BFehlyeUVWYgjYC6hhd3gJ2dGI
puRtcmrh6UW+g4z8jgZDP+emHdv3vL3OMQfS0xFXb1ehYKNMa6WnHvdqZYO3lgt+
iUQsWkwO4mwEhpQBWMZx4vPR2+8FEJdQSm6HuHQ0byPNPXB2yXO343kvTIzy0UEc
ZZ66+FPd4yp4F/hD3ciSLQIDAQABo3sweTAJBgNVHRMEAjAAMCwGCWCGSAGG+EIB
DQQfFh1PcGVuU1NMIEdlbmVyYXRlZCBDZXJ0aWZpY2F0ZTAdBgNVHQ4EFgQUlJUJ
euZLuWrNJlZGCFla2ooL/5AwHwYDVR0jBBgwFoAUyPSdt68Fs0K4GF2emLkqIiOt
XrgwDQYJKoZIhvcNAQELBQADggIBALC2ryhn6pbqYLEfnneAbZ9R/VkGmAupVqTd
M65Bz8l0CmMeqYRC/aDVmgQPDpdspDjqE5EA2ODx2aXFgPjFy17ye8Mb2o1rqOxz
hudSgsAj85+WrEEt4kbpVxiXNgnLfRmCv2EcBgXxufObp/wtF4Ssc1HrzsRcocCA
RU4SFAcdAGtpG3dQ8uloBoVlwqAltCWkUy9q8Qk2SFw/t+dkmafINkaCNP843djW
4vkZVgS3qsAbqrrOsWKUcOxGfvqfIMHAl7c4MFnOpCOBUC5TKboihS4Lv9oFLD+5
INOPkmL12v0Mxhz5V/H4gOd1F1CFbZtk9E4FrdspE7YlVF3gvrZ5hFUhTyC10S7E
kffckGhRTEMgkGM9ofObLxKYwTIK4q6aEmEvvPczatK9Bnadt63CKjRB/LiPymnz
B1y8PffoMInTram+dVqu+Yc3R1c9pT4VNUS2QrTv+BGTgtvNkE9ca4OQgbmpUZtM
1IyuusQOIcXYqRXhydwC0qmCe/9vS8p1An+438ewucVF6pkqA/TfGxWuTzwzjbgB
JjQyedhB2wZy2l9o0CUy39l2Met0L3rAc014gVpTlFb1V+BITi2eXF0m2wBXYFi8
EOCNoJvF5WGTXRpvuIL2kUe4FaTybj0UkDSesx3/JiJx+omsO9iFYPG/fxSzfeFv
rmxTGzL3
-----END CERTIFICATE-----
